(dp0
S'model'
p1
ccopy_reg
_reconstructor
p2
(csklearn.linear_model.logistic
LogisticRegression
p3
c__builtin__
object
p4
Ntp5
Rp6
(dp7
S'warm_start'
p8
I00
sS'C'
p9
F1.0
sS'classes_'
p10
cnumpy.core.multiarray
_reconstruct
p11
(cnumpy
ndarray
p12
(I0
tp13
S'b'
p14
tp15
Rp16
(I1
(I2
tp17
cnumpy
dtype
p18
(S'b1'
p19
I0
I1
tp20
Rp21
(I3
S'|'
p22
NNNI-1
I-1
I0
tp23
bI00
S'\x00\x01'
p24
tp25
bsS'n_jobs'
p26
I1
sS'verbose'
p27
I0
sS'fit_intercept'
p28
I01
sS'max_iter'
p29
I100
sS'class_weight'
p30
NsS'n_iter_'
p31
g11
(g12
(I0
tp32
g14
tp33
Rp34
(I1
(I1
tp35
g18
(S'i4'
p36
I0
I1
tp37
Rp38
(I3
S'<'
p39
NNNI-1
I-1
I0
tp40
bI00
S'\x06\x00\x00\x00'
p41
tp42
bsS'intercept_'
p43
g11
(g12
(I0
tp44
g14
tp45
Rp46
(I1
(I1
tp47
g18
(S'f8'
p48
I0
I1
tp49
Rp50
(I3
S'<'
p51
NNNI-1
I-1
I0
tp52
bI00
S'l-#O\x86\xe0\xf1?'
p53
tp54
bsS'penalty'
p55
S'l2'
p56
sS'multi_class'
p57
S'ovr'
p58
sS'random_state'
p59
NsS'_sklearn_version'
p60
S'0.18'
p61
sS'dual'
p62
I00
sS'tol'
p63
F0.0001
sS'coef_'
p64
g11
(g12
(I0
tp65
g14
tp66
Rp67
(I1
(I1
I2
tp68
g50
I01
S',-\xbb7\x82\xa5\x12\xc0\xfb&P\xbf\xe4|\t\xc0'
p69
tp70
bsS'solver'
p71
S'liblinear'
p72
sS'intercept_scaling'
p73
I1
sbsS'features'
p74
(lp75
S'netmhcpan'
p76
aS'pickpocket'
p77
as.